; Function Attrs: mustprogress nofree norecurse nosync nounwind willreturn memory(read, inaccessiblemem: none) uwtable
define hidden noundef zeroext i1 @_ZNK19OpenColorIO_v2_4dev9LogOpData18allComponentsEqualEv(ptr nocapture noundef nonnull readonly align 8 dereferenceable(252) %this) local_unnamed_addr #10 align 2 {
entry:
  %m_redParams = getelementptr inbounds i8, ptr %this, i64 168
  %m_greenParams = getelementptr inbounds i8, ptr %this, i64 192
  %_M_finish.i.i = getelementptr inbounds i8, ptr %this, i64 176
  %0 = load ptr, ptr %_M_finish.i.i, align 8
  %1 = load ptr, ptr %m_redParams, align 8
  %sub.ptr.lhs.cast.i.i = ptrtoint ptr %0 to i64
  %sub.ptr.rhs.cast.i.i = ptrtoint ptr %1 to i64
  %sub.ptr.sub.i.i = sub i64 %sub.ptr.lhs.cast.i.i, %sub.ptr.rhs.cast.i.i
  %_M_finish.i4.i = getelementptr inbounds i8, ptr %this, i64 200
  %2 = load ptr, ptr %_M_finish.i4.i, align 8
  %3 = load ptr, ptr %m_greenParams, align 8
  %sub.ptr.lhs.cast.i5.i = ptrtoint ptr %2 to i64
  %sub.ptr.rhs.cast.i6.i = ptrtoint ptr %3 to i64
  %sub.ptr.sub.i7.i = sub i64 %sub.ptr.lhs.cast.i5.i, %sub.ptr.rhs.cast.i6.i
  %cmp.i = icmp eq i64 %sub.ptr.sub.i.i, %sub.ptr.sub.i7.i
  br i1 %cmp.i, label %land.rhs.i, label %land.end

land.rhs.i:                                       ; preds = %entry
  %cmp.not4.i.i.i.i.i = icmp eq ptr %1, %0
  br i1 %cmp.not4.i.i.i.i.i, label %land.rhs.thread, label %for.body.i.i.i.i.i

for.body.i.i.i.i.i:                               ; preds = %land.rhs.i, %for.inc.i.i.i.i.i
  %__first2.addr.06.i.i.i.i.i = phi ptr [ %incdec.ptr2.i.i.i.i.i, %for.inc.i.i.i.i.i ], [ %3, %land.rhs.i ]
  %__first1.addr.05.i.i.i.i.i = phi ptr [ %incdec.ptr.i.i.i.i.i, %for.inc.i.i.i.i.i ], [ %1, %land.rhs.i ]
  %4 = load double, ptr %__first1.addr.05.i.i.i.i.i, align 8
  %5 = load double, ptr %__first2.addr.06.i.i.i.i.i, align 8
  %cmp1.i.i.i.i.i = fcmp oeq double %4, %5
  br i1 %cmp1.i.i.i.i.i, label %for.inc.i.i.i.i.i, label %land.end

for.inc.i.i.i.i.i:                                ; preds = %for.body.i.i.i.i.i
  %incdec.ptr.i.i.i.i.i = getelementptr inbounds i8, ptr %__first1.addr.05.i.i.i.i.i, i64 8
  %incdec.ptr2.i.i.i.i.i = getelementptr inbounds i8, ptr %__first2.addr.06.i.i.i.i.i, i64 8
  %cmp.not.i.i.i.i.i = icmp eq ptr %incdec.ptr.i.i.i.i.i, %0
  br i1 %cmp.not.i.i.i.i.i, label %land.rhs, label %for.body.i.i.i.i.i, !llvm.loop !4

land.rhs:                                         ; preds = %for.inc.i.i.i.i.i
  %m_blueParams = getelementptr inbounds i8, ptr %this, i64 216
  %_M_finish.i4.i5 = getelementptr inbounds i8, ptr %this, i64 224
  %6 = load ptr, ptr %_M_finish.i4.i5, align 8
  %7 = load ptr, ptr %m_blueParams, align 8
  %sub.ptr.lhs.cast.i5.i6 = ptrtoint ptr %6 to i64
  %sub.ptr.rhs.cast.i6.i7 = ptrtoint ptr %7 to i64
  %sub.ptr.sub.i7.i8 = sub i64 %sub.ptr.lhs.cast.i5.i6, %sub.ptr.rhs.cast.i6.i7
  %cmp.i9 = icmp ne i64 %sub.ptr.sub.i.i, %sub.ptr.sub.i7.i8
  %brmerge = or i1 %cmp.i9, %cmp.not4.i.i.i.i.i
  %not.cmp.i9 = xor i1 %cmp.i9, true
  br i1 %brmerge, label %land.end, label %for.body.i.i.i.i.i12

land.rhs.thread:                                  ; preds = %land.rhs.i
  %m_blueParams23 = getelementptr inbounds i8, ptr %this, i64 216
  %_M_finish.i4.i524 = getelementptr inbounds i8, ptr %this, i64 224
  %8 = load ptr, ptr %_M_finish.i4.i524, align 8
  %9 = load ptr, ptr %m_blueParams23, align 8
  %sub.ptr.lhs.cast.i5.i625 = ptrtoint ptr %8 to i64
  %sub.ptr.rhs.cast.i6.i726 = ptrtoint ptr %9 to i64
  %sub.ptr.sub.i7.i827 = sub i64 %sub.ptr.lhs.cast.i5.i625, %sub.ptr.rhs.cast.i6.i726
  %cmp.i928 = icmp eq i64 %sub.ptr.sub.i.i, %sub.ptr.sub.i7.i827
  br label %land.end

for.body.i.i.i.i.i12:                             ; preds = %land.rhs, %for.body.i.i.i.i.i12
  %__first2.addr.06.i.i.i.i.i13 = phi ptr [ %incdec.ptr2.i.i.i.i.i18, %for.body.i.i.i.i.i12 ], [ %7, %land.rhs ]
  %__first1.addr.05.i.i.i.i.i14 = phi ptr [ %incdec.ptr.i.i.i.i.i17, %for.body.i.i.i.i.i12 ], [ %1, %land.rhs ]
  %10 = load double, ptr %__first1.addr.05.i.i.i.i.i14, align 8
  %11 = load double, ptr %__first2.addr.06.i.i.i.i.i13, align 8
  %cmp1.i.i.i.i.i15 = fcmp oeq double %10, %11
  %incdec.ptr.i.i.i.i.i17 = getelementptr inbounds i8, ptr %__first1.addr.05.i.i.i.i.i14, i64 8
  %incdec.ptr2.i.i.i.i.i18 = getelementptr inbounds i8, ptr %__first2.addr.06.i.i.i.i.i13, i64 8
  %cmp.not.i.i.i.i.i19 = icmp ne ptr %incdec.ptr.i.i.i.i.i17, %0
  %or.cond.not = select i1 %cmp1.i.i.i.i.i15, i1 %cmp.not.i.i.i.i.i19, i1 false
  br i1 %or.cond.not, label %for.body.i.i.i.i.i12, label %land.end, !llvm.loop !4

land.end:                                         ; preds = %for.body.i.i.i.i.i, %for.body.i.i.i.i.i12, %land.rhs.thread, %land.rhs, %entry
  %12 = phi i1 [ false, %entry ], [ %not.cmp.i9, %land.rhs ], [ %cmp.i928, %land.rhs.thread ], [ %cmp1.i.i.i.i.i15, %for.body.i.i.i.i.i12 ], [ false, %for.body.i.i.i.i.i ]
  ret i1 %12
}